target datalayout = "e-m:e-p270:32:32-p271:32:32-p272:64:64-i64:64-i128:128-f80:128-n8:16:32:64-S128"
target triple = "x86_64-pc-linux-gnu"

%struct.regex_t = type { i32, i64, ptr, ptr }

@.str.28 = private unnamed_addr constant [2 x i8] c"/\00", align 1
@.str.29 = private unnamed_addr constant [4 x i8] c"%s/\00", align 1

; Function Attrs: nounwind uwtable
define i32 @match_regex(ptr noundef %0, ptr noundef %1) #0 {
  %3 = alloca i32, align 4
  %4 = alloca ptr, align 8
  %5 = alloca ptr, align 8
  %6 = alloca %struct.regex_t, align 8
  %7 = alloca i32, align 4
  %8 = alloca i32, align 4
  %9 = alloca [513 x i8], align 16
  store ptr %0, ptr %4, align 8
  store ptr %1, ptr %5, align 8
  store i32 5, ptr %8, align 4
  %10 = load ptr, ptr %5, align 8
  %11 = load i32, ptr %8, align 4
  %12 = call i32 @cli_regcomp(ptr noundef %6, ptr noundef %10, i32 noundef %11)
  %13 = icmp ne i32 %12, 0
  br i1 %13, label %14, label %15

14:                                               ; preds = %2
  store i32 2, ptr %3, align 4
  br label %42

15:                                               ; preds = %2
  %16 = load ptr, ptr %5, align 8
  %17 = load ptr, ptr %5, align 8
  %18 = call i64 @strlen(ptr noundef %17) #8
  %19 = sub i64 %18, 1
  %20 = getelementptr inbounds i8, ptr %16, i64 %19
  %21 = load i8, ptr %20, align 1
  %22 = sext i8 %21 to i32
  %23 = load i8, ptr @.str.28, align 1
  %24 = sext i8 %23 to i32
  %25 = icmp eq i32 %22, %24
  br i1 %25, label %26, label %31

26:                                               ; preds = %15
  %27 = getelementptr inbounds [513 x i8], ptr %9, i64 0, i64 0
  %28 = load ptr, ptr %4, align 8
  %29 = call i32 (ptr, i64, ptr, ...) @snprintf(ptr noundef %27, i64 noundef 511, ptr noundef @.str.29, ptr noundef %28) #10
  %30 = getelementptr inbounds [513 x i8], ptr %9, i64 0, i64 512
  store i8 0, ptr %30, align 16
  br label %36

31:                                               ; preds = %15
  %32 = getelementptr inbounds [513 x i8], ptr %9, i64 0, i64 0
  %33 = load ptr, ptr %4, align 8
  %34 = call ptr @strncpy(ptr noundef %32, ptr noundef %33, i64 noundef 513) #10
  %35 = getelementptr inbounds [513 x i8], ptr %9, i64 0, i64 512
  store i8 0, ptr %35, align 16
  br label %36

36:                                               ; preds = %31, %26
  %37 = getelementptr inbounds [513 x i8], ptr %9, i64 0, i64 0
  %38 = call i32 @cli_regexec(ptr noundef %6, ptr noundef %37, i64 noundef 0, ptr noundef null, i32 noundef 0)
  %39 = icmp eq i32 %38, 1
  %40 = select i1 %39, i32 0, i32 1
  store i32 %40, ptr %7, align 4
  call void @cli_regfree(ptr noundef %6)
  %41 = load i32, ptr %7, align 4
  store i32 %41, ptr %3, align 4
  br label %42

42:                                               ; preds = %36, %14
  %43 = load i32, ptr %3, align 4
  ret i32 %43
}