; Function Attrs: nounwind uwtable
define i32 @match_regex(ptr noundef %0, ptr noundef %1) local_unnamed_addr #1 {
  %3 = alloca %struct.regex_t, align 8
  %4 = alloca [513 x i8], align 16
  %5 = call i32 @cli_regcomp(ptr noundef nonnull %3, ptr noundef %1, i32 noundef 5) #18
  %.not = icmp eq i32 %5, 0
  br i1 %.not, label %6, label %21

6:                                                ; preds = %2
  %7 = call i64 @strlen(ptr noundef nonnull dereferenceable(1) %1) #19
  %8 = getelementptr i8, ptr %1, i64 %7
  %9 = getelementptr i8, ptr %8, i64 -1
  %10 = load i8, ptr %9, align 1
  %11 = icmp eq i8 %10, 47
  br i1 %11, label %12, label %14

12:                                               ; preds = %6
  %13 = call i32 (ptr, i64, ptr, ...) @snprintf(ptr noundef nonnull dereferenceable(1) %4, i64 noundef 511, ptr noundef nonnull @.str.29, ptr noundef %0) #18
  br label %16

14:                                               ; preds = %6
  %15 = call ptr @strncpy(ptr noundef nonnull dereferenceable(1) %4, ptr noundef nonnull dereferenceable(1) %0, i64 noundef 513) #18
  br label %16

16:                                               ; preds = %14, %12
  %17 = getelementptr inbounds i8, ptr %4, i64 512
  store i8 0, ptr %17, align 16
  %18 = call i32 @cli_regexec(ptr noundef nonnull %3, ptr noundef nonnull %4, i64 noundef 0, ptr noundef null, i32 noundef 0) #18
  %19 = icmp ne i32 %18, 1
  %20 = zext i1 %19 to i32
  call void @cli_regfree(ptr noundef nonnull %3) #18
  br label %21

21:                                               ; preds = %2, %16
  %.0 = phi i32 [ %20, %16 ], [ 2, %2 ]
  ret i32 %.0
}